; Function Attrs: mustprogress uwtable
define void @_ZN6google10LogMessageC2EPKciRKNS_7logging8internal13CheckOpStringE(ptr noundef nonnull align 8 dereferenceable(96) initializes((0, 8)) %0, ptr noundef %1, i32 noundef %2, ptr noundef nonnull readonly align 8 captures(none) dereferenceable(8) %3) unnamed_addr #0 align 2 {
  store ptr null, ptr %0, align 8, !tbaa !84
  %5 = getelementptr inbounds nuw i8, ptr %0, i64 16
  tail call void @_ZN6google14LogMessageTimeC1Ev(ptr noundef nonnull align 8 dereferenceable(80) %5)
  tail call void @_ZN6google10LogMessage4InitEPKciNS_11LogSeverityEMS0_FvvE(ptr noundef nonnull align 8 dereferenceable(96) %0, ptr noundef %1, i32 noundef %2, i32 noundef 3, i64 ptrtoint (ptr @_ZN6google10LogMessage9SendToLogEv to i64), i64 0)
  %6 = getelementptr inbounds nuw i8, ptr %0, i64 8
  %7 = load ptr, ptr %6, align 8, !tbaa !91
  %8 = getelementptr inbounds nuw i8, ptr %7, i64 30008
  %9 = tail call noundef nonnull align 8 dereferenceable(8) ptr @_ZSt16__ostream_insertIcSt11char_traitsIcEERSt13basic_ostreamIT_T0_ES6_PKS3_l(ptr noundef nonnull align 8 dereferenceable(8) %8, ptr noundef nonnull @.str.11, i64 noundef 14)
  %10 = load ptr, ptr %3, align 8, !tbaa !126
  %11 = load ptr, ptr %10, align 8, !tbaa !69
  %12 = getelementptr inbounds nuw i8, ptr %10, i64 8
  %13 = load i64, ptr %12, align 8, !tbaa !48
  %14 = tail call noundef nonnull align 8 dereferenceable(8) ptr @_ZSt16__ostream_insertIcSt11char_traitsIcEERSt13basic_ostreamIT_T0_ES6_PKS3_l(ptr noundef nonnull align 8 dereferenceable(8) %8, ptr noundef %11, i64 noundef %13)
  %15 = tail call noundef nonnull align 8 dereferenceable(8) ptr @_ZSt16__ostream_insertIcSt11char_traitsIcEERSt13basic_ostreamIT_T0_ES6_PKS3_l(ptr noundef nonnull align 8 dereferenceable(8) %14, ptr noundef nonnull @.str.12, i64 noundef 1)
  ret void
}